	.file	"List.c"
	.text
.Ltext0:
	.cfi_sections	.debug_frame
	.file 0 "E://CandC++//List" "E:/CandC++/List/List.c"
	.globl	init_list
	.def	init_list;	.scl	2;	.type	32;	.endef
	.seh_proc	init_list
init_list:
.LFB110:
	.file 1 "E:/CandC++/List/List.c"
	.loc 1 11 1
	.cfi_startproc
	pushq	%rbp
	.seh_pushreg	%rbp
	.cfi_def_cfa_offset 16
	.cfi_offset 6, -16
	movq	%rsp, %rbp
	.seh_setframe	%rbp, 0
	.cfi_def_cfa_register 6
	subq	$48, %rsp
	.seh_stackalloc	48
	.seh_endprologue
	.loc 1 12 50
	movl	$16, %ecx
	call	malloc
	movq	%rax, -8(%rbp)
	.loc 1 13 11
	cmpq	$0, -8(%rbp)
	jne	.L2
	.loc 1 14 19
	movl	$0, %eax
	jmp	.L3
.L2:
	.loc 1 15 19
	movq	-8(%rbp), %rax
	movq	$0, 8(%rax)
	.loc 1 16 15
	movq	-8(%rbp), %rax
.L3:
	.loc 1 17 1
	addq	$48, %rsp
	popq	%rbp
	.cfi_restore 6
	.cfi_def_cfa 7, 8
	ret
	.cfi_endproc
.LFE110:
	.seh_endproc
	.globl	create_node
	.def	create_node;	.scl	2;	.type	32;	.endef
	.seh_proc	create_node
create_node:
.LFB111:
	.loc 1 20 1
	.cfi_startproc
	pushq	%rbp
	.seh_pushreg	%rbp
	.cfi_def_cfa_offset 16
	.cfi_offset 6, -16
	movq	%rsp, %rbp
	.seh_setframe	%rbp, 0
	.cfi_def_cfa_register 6
	subq	$48, %rsp
	.seh_stackalloc	48
	.seh_endprologue
	movl	%ecx, 16(%rbp)
	.loc 1 21 54
	movl	$16, %ecx
	call	malloc
	movq	%rax, -8(%rbp)
	.loc 1 22 11
	cmpq	$0, -8(%rbp)
	jne	.L5
	.loc 1 23 19
	movl	$0, %eax
	jmp	.L6
.L5:
	.loc 1 24 21
	movq	-8(%rbp), %rax
	movl	16(%rbp), %edx
	movl	%edx, (%rax)
	.loc 1 25 23
	movq	-8(%rbp), %rax
	movq	$0, 8(%rax)
	.loc 1 26 15
	movq	-8(%rbp), %rax
.L6:
	.loc 1 27 1
	addq	$48, %rsp
	popq	%rbp
	.cfi_restore 6
	.cfi_def_cfa 7, 8
	ret
	.cfi_endproc
.LFE111:
	.seh_endproc
	.globl	free_list
	.def	free_list;	.scl	2;	.type	32;	.endef
	.seh_proc	free_list
free_list:
.LFB112:
	.loc 1 30 1
	.cfi_startproc
	pushq	%rbp
	.seh_pushreg	%rbp
	.cfi_def_cfa_offset 16
	.cfi_offset 6, -16
	movq	%rsp, %rbp
	.seh_setframe	%rbp, 0
	.cfi_def_cfa_register 6
	subq	$48, %rsp
	.seh_stackalloc	48
	.seh_endprologue
	movq	%rcx, 16(%rbp)
	.loc 1 31 24
	movq	16(%rbp), %rax
	movq	%rax, -8(%rbp)
	.loc 1 32 24
	movq	$0, -16(%rbp)
	.loc 1 33 13
	jmp	.L8
.L9:
	.loc 1 35 17
	movq	-8(%rbp), %rax
	movq	8(%rax), %rax
	movq	%rax, -16(%rbp)
	.loc 1 36 13
	movq	-8(%rbp), %rax
	movq	%rax, %rcx
	call	free
	.loc 1 37 17
	movq	-16(%rbp), %rax
	movq	%rax, -8(%rbp)
.L8:
	.loc 1 33 18
	cmpq	$0, -8(%rbp)
	jne	.L9
	.loc 1 40 1
	nop
	nop
	addq	$48, %rsp
	popq	%rbp
	.cfi_restore 6
	.cfi_def_cfa 7, 8
	ret
	.cfi_endproc
.LFE112:
	.seh_endproc
	.section .rdata,"dr"
.LC0:
	.ascii "id: %d \12\0"
	.text
	.globl	visit_list
	.def	visit_list;	.scl	2;	.type	32;	.endef
	.seh_proc	visit_list
visit_list:
.LFB113:
	.loc 1 43 1
	.cfi_startproc
	pushq	%rbp
	.seh_pushreg	%rbp
	.cfi_def_cfa_offset 16
	.cfi_offset 6, -16
	movq	%rsp, %rbp
	.seh_setframe	%rbp, 0
	.cfi_def_cfa_register 6
	subq	$48, %rsp
	.seh_stackalloc	48
	.seh_endprologue
	movq	%rcx, 16(%rbp)
	.loc 1 44 9
	cmpq	$0, 16(%rbp)
	je	.L15
	.loc 1 46 23
	movq	16(%rbp), %rax
	movq	8(%rax), %rax
	movq	%rax, -8(%rbp)
	.loc 1 47 12
	jmp	.L13
.L14:
	.loc 1 49 9
	movq	-8(%rbp), %rax
	movl	(%rax), %eax
	leaq	.LC0(%rip), %rcx
	movl	%eax, %edx
	call	printf
	.loc 1 50 13
	movq	-8(%rbp), %rax
	movq	8(%rax), %rax
	movq	%rax, -8(%rbp)
.L13:
	.loc 1 47 17
	cmpq	$0, -8(%rbp)
	jne	.L14
	jmp	.L10
.L15:
	.loc 1 45 9
	nop
.L10:
	.loc 1 52 1
	addq	$48, %rsp
	popq	%rbp
	.cfi_restore 6
	.cfi_def_cfa 7, 8
	ret
	.cfi_endproc
.LFE113:
	.seh_endproc
	.globl	main
	.def	main;	.scl	2;	.type	32;	.endef
	.seh_proc	main
main:
.LFB114:
	.loc 1 55 1
	.cfi_startproc
	pushq	%rbp
	.seh_pushreg	%rbp
	.cfi_def_cfa_offset 16
	.cfi_offset 6, -16
	movq	%rsp, %rbp
	.seh_setframe	%rbp, 0
	.cfi_def_cfa_register 6
	subq	$64, %rsp
	.seh_stackalloc	64
	.seh_endprologue
	.loc 1 55 1
	call	__main
	.loc 1 56 29
	call	init_list
	movq	%rax, -16(%rbp)
	.loc 1 57 22
	movq	-16(%rbp), %rax
	movq	%rax, -24(%rbp)
	.loc 1 58 9
	movl	$0, -4(%rbp)
	.loc 1 69 10
	jmp	.L17
.L18:
.LBB2:
	.loc 1 71 39
	movl	-4(%rbp), %eax
	movl	%eax, %ecx
	call	create_node
	movq	%rax, -32(%rbp)
	.loc 1 72 31
	movq	-24(%rbp), %rax
	movq	8(%rax), %rdx
	.loc 1 72 26
	movq	-32(%rbp), %rax
	movq	%rdx, 8(%rax)
	.loc 1 73 21
	movq	-24(%rbp), %rax
	movq	-32(%rbp), %rdx
	movq	%rdx, 8(%rax)
	.loc 1 74 12
	addl	$1, -4(%rbp)
.L17:
.LBE2:
	.loc 1 69 12
	cmpl	$9, -4(%rbp)
	jle	.L18
	.loc 1 76 5
	movq	-16(%rbp), %rax
	movq	%rax, %rcx
	call	visit_list
	.loc 1 77 5
	movq	-16(%rbp), %rax
	movq	%rax, %rcx
	call	free_list
	.loc 1 78 12
	movl	$0, %eax
	.loc 1 79 1
	addq	$64, %rsp
	popq	%rbp
	.cfi_restore 6
	.cfi_def_cfa 7, 8
	ret
	.cfi_endproc
.LFE114:
	.seh_endproc
.Letext0:
	.file 2 "E:/Compiler/winlibs-x86_64-gcc-15.1.0/mingw64/x86_64-w64-mingw32/include/stdio.h"
	.file 3 "E:/Compiler/winlibs-x86_64-gcc-15.1.0/mingw64/x86_64-w64-mingw32/include/stdlib.h"